; Function Attrs: mustprogress nofree norecurse nosync nounwind memory(readwrite, inaccessiblemem: none) uwtable
define noundef zeroext i1 @_ZN10open_spiel16NextPowerSetMaskEPSt6vectorIbSaIbEE(ptr nocapture noundef readonly %0) local_unnamed_addr #3 personality ptr @__gxx_personality_v0 {
  %2 = getelementptr inbounds nuw i8, ptr %0, i64 16
  %3 = getelementptr inbounds i8, ptr %0, i64 24
  %4 = load ptr, ptr %2, align 8
  %5 = load i32, ptr %3, align 8
  %6 = load ptr, ptr %0, align 8
  %7 = ptrtoint ptr %4 to i64
  %8 = ptrtoint ptr %6 to i64
  %9 = sub i64 %7, %8
  %10 = shl nsw i64 %9, 3
  %11 = zext i32 %5 to i64
  %12 = sub nsw i64 0, %11
  %.not24.not = icmp eq i64 %10, %12
  br i1 %.not24.not, label %._crit_edge, label %_ZNSt14_Bit_referenceaSEb.exit

13:                                               ; preds = %_ZNSt14_Bit_referenceaSEb.exit
  %14 = add i64 %.025, 1
  %15 = load ptr, ptr %2, align 8
  %16 = load i32, ptr %3, align 8
  %17 = ptrtoint ptr %15 to i64
  %18 = ptrtoint ptr %35 to i64
  %19 = sub i64 %17, %18
  %20 = shl nsw i64 %19, 3
  %21 = zext i32 %16 to i64
  %22 = add nsw i64 %20, %21
  %.not.not = icmp eq i64 %14, %22
  br i1 %.not.not, label %._crit_edge, label %_ZNSt14_Bit_referenceaSEb.exit, !llvm.loop !4

_ZNSt14_Bit_referenceaSEb.exit:                   ; preds = %1, %13
  %23 = phi ptr [ %35, %13 ], [ %6, %1 ]
  %.025 = phi i64 [ %14, %13 ], [ 0, %1 ]
  %24 = sdiv i64 %.025, 64
  %25 = getelementptr inbounds i64, ptr %23, i64 %24
  %26 = and i64 %.025, -9223372036854775745
  %27 = icmp ugt i64 %26, -9223372036854775808
  %storemerge.idx.i.i.i.i.i = select i1 %27, i64 -8, i64 0
  %storemerge.i.i.i.i.i = getelementptr inbounds i8, ptr %25, i64 %storemerge.idx.i.i.i.i.i
  %28 = and i64 %.025, 63
  %29 = shl nuw i64 1, %28
  %30 = load i64, ptr %storemerge.i.i.i.i.i, align 8
  %31 = and i64 %30, %29
  %.not22 = icmp eq i64 %31, 0
  %32 = xor i64 %29, -1
  %33 = and i64 %30, %32
  %34 = or i64 %30, %29
  %storemerge = select i1 %.not22, i64 %34, i64 %33
  store i64 %storemerge, ptr %storemerge.i.i.i.i.i, align 8
  %35 = load ptr, ptr %0, align 8
  %36 = getelementptr inbounds i64, ptr %35, i64 %24
  %storemerge.i.i.i.i.i15 = getelementptr inbounds i8, ptr %36, i64 %storemerge.idx.i.i.i.i.i
  %37 = load i64, ptr %storemerge.i.i.i.i.i15, align 8
  %38 = and i64 %37, %29
  %.not23.not.not = icmp ne i64 %38, 0
  br i1 %.not23.not.not, label %._crit_edge, label %13

._crit_edge:                                      ; preds = %_ZNSt14_Bit_referenceaSEb.exit, %13, %1
  %.not.lcssa = phi i1 [ false, %1 ], [ %.not23.not.not, %13 ], [ %.not23.not.not, %_ZNSt14_Bit_referenceaSEb.exit ]
  ret i1 %.not.lcssa
}